target datalayout = "e-m:e-p270:32:32-p271:32:32-p272:64:64-i64:64-i128:128-f80:128-n8:16:32:64-S128"
target triple = "x86_64-pc-linux-gnu"

%"struct.Yosys::RTLIL::Const" = type { i16, i8, %union.anon }
%union.anon = type { %"class.std::__cxx11::basic_string" }
%"class.std::__cxx11::basic_string" = type { %"struct.std::__cxx11::basic_string<char>::_Alloc_hider", i64, %union.anon.90 }
%"struct.std::__cxx11::basic_string<char>::_Alloc_hider" = type { ptr }
%union.anon.90 = type { i64, [8 x i8] }
%"struct.std::_Rb_tree_header" = type { %"struct.std::_Rb_tree_node_base", i64 }
%"struct.std::_Rb_tree_node_base" = type { i32, ptr, ptr, ptr }
%"class.Yosys::MemContents" = type { i32, i32, %"struct.Yosys::RTLIL::Const", %"class.std::map.232" }
%"class.std::map.232" = type { %"class.std::_Rb_tree.233" }
%"class.std::_Rb_tree.233" = type { %"struct.std::_Rb_tree<unsigned int, std::pair<const unsigned int, Yosys::RTLIL::Const>, std::_Select1st<std::pair<const unsigned int, Yosys::RTLIL::Const>>, std::less<unsigned int>>::_Rb_tree_impl" }
%"struct.std::_Rb_tree<unsigned int, std::pair<const unsigned int, Yosys::RTLIL::Const>, std::_Select1st<std::pair<const unsigned int, Yosys::RTLIL::Const>>, std::less<unsigned int>>::_Rb_tree_impl" = type { [8 x i8], %"struct.std::_Rb_tree_header" }
%"struct.std::_Rb_tree_iterator.241" = type { ptr }
%"struct.std::pair.239" = type { i32, %"struct.Yosys::RTLIL::Const" }
%"struct.std::_Rb_tree_const_iterator.238" = type { ptr }
%"struct.std::_Rb_tree_node.350" = type { %"struct.std::_Rb_tree_node_base", %"struct.__gnu_cxx::__aligned_membuf.351" }
%"struct.__gnu_cxx::__aligned_membuf.351" = type { [48 x i8] }

; Function Attrs: mustprogress nounwind uwtable
define linkonce_odr noundef ptr @_ZN9__gnu_cxx16__aligned_membufISt4pairIKjN5Yosys5RTLIL5ConstEEE7_M_addrEv(ptr noundef nonnull align 8 dereferenceable(48) %0) #8 comdat align 2 {
  %2 = alloca ptr, align 8
  store ptr %0, ptr %2, align 8, !tbaa !1123
  %3 = load ptr, ptr %2, align 8
  %4 = getelementptr inbounds nuw %"struct.__gnu_cxx::__aligned_membuf.351", ptr %3, i32 0, i32 0
  ret ptr %4
}

; Function Attrs: mustprogress nounwind uwtable
define linkonce_odr noundef ptr @_ZN9__gnu_cxx16__aligned_membufISt4pairIKjN5Yosys5RTLIL5ConstEEE6_M_ptrEv(ptr noundef nonnull align 8 dereferenceable(48) %0) #8 comdat align 2 {
  %2 = alloca ptr, align 8
  store ptr %0, ptr %2, align 8, !tbaa !1123
  %3 = load ptr, ptr %2, align 8
  %4 = call noundef ptr @_ZN9__gnu_cxx16__aligned_membufISt4pairIKjN5Yosys5RTLIL5ConstEEE7_M_addrEv(ptr noundef nonnull align 8 dereferenceable(48) %3) #3
  ret ptr %4
}

; Function Attrs: mustprogress nounwind uwtable
define linkonce_odr noundef ptr @_ZNSt13_Rb_tree_nodeISt4pairIKjN5Yosys5RTLIL5ConstEEE9_M_valptrEv(ptr noundef nonnull align 8 dereferenceable(80) %0) #8 comdat align 2 {
  %2 = alloca ptr, align 8
  store ptr %0, ptr %2, align 8, !tbaa !1118
  %3 = load ptr, ptr %2, align 8
  %4 = getelementptr inbounds nuw %"struct.std::_Rb_tree_node.350", ptr %3, i32 0, i32 1
  %5 = call noundef ptr @_ZN9__gnu_cxx16__aligned_membufISt4pairIKjN5Yosys5RTLIL5ConstEEE6_M_ptrEv(ptr noundef nonnull align 8 dereferenceable(48) %4) #3
  ret ptr %5
}

; Function Attrs: mustprogress nounwind uwtable
define linkonce_odr void @_ZNSt23_Rb_tree_const_iteratorISt4pairIKjN5Yosys5RTLIL5ConstEEEC2EPKSt18_Rb_tree_node_base(ptr noundef nonnull align 8 dereferenceable(8) %0, ptr noundef %1) unnamed_addr #8 comdat align 2 {
  %3 = alloca ptr, align 8
  %4 = alloca ptr, align 8
  store ptr %0, ptr %3, align 8, !tbaa !508
  store ptr %1, ptr %4, align 8, !tbaa !210
  %5 = load ptr, ptr %3, align 8
  %6 = getelementptr inbounds nuw %"struct.std::_Rb_tree_const_iterator.238", ptr %5, i32 0, i32 0
  %7 = load ptr, ptr %4, align 8, !tbaa !210
  store ptr %7, ptr %6, align 8, !tbaa !510
  ret void
}

; Function Attrs: mustprogress nounwind uwtable
define linkonce_odr noundef ptr @_ZNKSt17_Rb_tree_iteratorISt4pairIKjN5Yosys5RTLIL5ConstEEEptEv(ptr noundef nonnull align 8 dereferenceable(8) %0) #8 comdat align 2 {
  %2 = alloca ptr, align 8
  store ptr %0, ptr %2, align 8, !tbaa !513
  %3 = load ptr, ptr %2, align 8
  %4 = getelementptr inbounds nuw %"struct.std::_Rb_tree_iterator.241", ptr %3, i32 0, i32 0
  %5 = load ptr, ptr %4, align 8, !tbaa !515
  %6 = call noundef ptr @_ZNSt13_Rb_tree_nodeISt4pairIKjN5Yosys5RTLIL5ConstEEE9_M_valptrEv(ptr noundef nonnull align 8 dereferenceable(80) %5)
  ret ptr %6
}

; Function Attrs: mustprogress nounwind uwtable
define linkonce_odr ptr @_ZNKSt8_Rb_treeIjSt4pairIKjN5Yosys5RTLIL5ConstEESt10_Select1stIS5_ESt4lessIjESaIS5_EE3endEv(ptr noundef nonnull align 8 dereferenceable(48) %0) #8 comdat align 2 {
  %2 = alloca %"struct.std::_Rb_tree_const_iterator.238", align 8
  %3 = alloca ptr, align 8
  store ptr %0, ptr %3, align 8, !tbaa !1108
  %4 = load ptr, ptr %3, align 8
  %5 = getelementptr inbounds nuw %"class.std::_Rb_tree.233", ptr %4, i32 0, i32 0
  %6 = getelementptr inbounds i8, ptr %5, i64 8
  %7 = getelementptr inbounds nuw %"struct.std::_Rb_tree_header", ptr %6, i32 0, i32 0
  call void @_ZNSt23_Rb_tree_const_iteratorISt4pairIKjN5Yosys5RTLIL5ConstEEEC2EPKSt18_Rb_tree_node_base(ptr noundef nonnull align 8 dereferenceable(8) %2, ptr noundef %7) #3
  %8 = getelementptr inbounds nuw %"struct.std::_Rb_tree_const_iterator.238", ptr %2, i32 0, i32 0
  %9 = load ptr, ptr %8, align 8
  ret ptr %9
}

; Function Attrs: mustprogress uwtable
define linkonce_odr noundef i32 @_ZNK5Yosys11MemContents11_range_sizeESt17_Rb_tree_iteratorISt4pairIKjNS_5RTLIL5ConstEEE(ptr noundef nonnull align 8 dereferenceable(96) %0, ptr %1) #4 comdat align 2 {
  %3 = alloca %"struct.std::_Rb_tree_iterator.241", align 8
  %4 = alloca ptr, align 8
  %5 = getelementptr inbounds nuw %"struct.std::_Rb_tree_iterator.241", ptr %3, i32 0, i32 0
  store ptr %1, ptr %5, align 8
  store ptr %0, ptr %4, align 8, !tbaa !484
  %6 = load ptr, ptr %4, align 8
  %7 = call noundef ptr @_ZNKSt17_Rb_tree_iteratorISt4pairIKjN5Yosys5RTLIL5ConstEEEptEv(ptr noundef nonnull align 8 dereferenceable(8) %3) #3
  %8 = getelementptr inbounds nuw %"struct.std::pair.239", ptr %7, i32 0, i32 1
  %9 = call noundef i32 @_ZNK5Yosys5RTLIL5Const4sizeEv(ptr noundef nonnull align 8 dereferenceable(40) %8)
  %10 = getelementptr inbounds nuw %"class.Yosys::MemContents", ptr %6, i32 0, i32 1
  %11 = load i32, ptr %10, align 4, !tbaa !486
  %12 = sdiv i32 %9, %11
  ret i32 %12
}

; Function Attrs: mustprogress nounwind uwtable
define linkonce_odr noundef i32 @_ZNK5Yosys11MemContents12_range_beginESt17_Rb_tree_iteratorISt4pairIKjNS_5RTLIL5ConstEEE(ptr noundef nonnull align 8 dereferenceable(96) %0, ptr %1) #8 comdat align 2 {
  %3 = alloca %"struct.std::_Rb_tree_iterator.241", align 8
  %4 = alloca ptr, align 8
  %5 = getelementptr inbounds nuw %"struct.std::_Rb_tree_iterator.241", ptr %3, i32 0, i32 0
  store ptr %1, ptr %5, align 8
  store ptr %0, ptr %4, align 8, !tbaa !484
  %6 = call noundef ptr @_ZNKSt17_Rb_tree_iteratorISt4pairIKjN5Yosys5RTLIL5ConstEEEptEv(ptr noundef nonnull align 8 dereferenceable(8) %3) #3
  %7 = getelementptr inbounds nuw %"struct.std::pair.239", ptr %6, i32 0, i32 0
  %8 = load i32, ptr %7, align 8, !tbaa !504
  ret i32 %8
}

; Function Attrs: mustprogress nounwind uwtable
define linkonce_odr noundef zeroext i1 @_ZStneRKSt23_Rb_tree_const_iteratorISt4pairIKjN5Yosys5RTLIL5ConstEEES8_(ptr noundef nonnull align 8 dereferenceable(8) %0, ptr noundef nonnull align 8 dereferenceable(8) %1) #8 comdat {
  %3 = alloca ptr, align 8
  %4 = alloca ptr, align 8
  store ptr %0, ptr %3, align 8, !tbaa !508
  store ptr %1, ptr %4, align 8, !tbaa !508
  %5 = load ptr, ptr %3, align 8, !tbaa !508
  %6 = getelementptr inbounds nuw %"struct.std::_Rb_tree_const_iterator.238", ptr %5, i32 0, i32 0
  %7 = load ptr, ptr %6, align 8, !tbaa !510
  %8 = load ptr, ptr %4, align 8, !tbaa !508
  %9 = getelementptr inbounds nuw %"struct.std::_Rb_tree_const_iterator.238", ptr %8, i32 0, i32 0
  %10 = load ptr, ptr %9, align 8, !tbaa !510
  %11 = icmp ne ptr %7, %10
  ret i1 %11
}

; Function Attrs: mustprogress nounwind uwtable
define linkonce_odr ptr @_ZNKSt3mapIjN5Yosys5RTLIL5ConstESt4lessIjESaISt4pairIKjS2_EEE3endEv(ptr noundef nonnull align 8 dereferenceable(48) %0) #8 comdat align 2 {
  %2 = alloca %"struct.std::_Rb_tree_const_iterator.238", align 8
  %3 = alloca ptr, align 8
  store ptr %0, ptr %3, align 8, !tbaa !506
  %4 = load ptr, ptr %3, align 8
  %5 = getelementptr inbounds nuw %"class.std::map.232", ptr %4, i32 0, i32 0
  %6 = call ptr @_ZNKSt8_Rb_treeIjSt4pairIKjN5Yosys5RTLIL5ConstEESt10_Select1stIS5_ESt4lessIjESaIS5_EE3endEv(ptr noundef nonnull align 8 dereferenceable(48) %5) #3
  %7 = getelementptr inbounds nuw %"struct.std::_Rb_tree_const_iterator.238", ptr %2, i32 0, i32 0
  store ptr %6, ptr %7, align 8
  %8 = getelementptr inbounds nuw %"struct.std::_Rb_tree_const_iterator.238", ptr %2, i32 0, i32 0
  %9 = load ptr, ptr %8, align 8
  ret ptr %9
}

; Function Attrs: mustprogress nounwind uwtable
define linkonce_odr void @_ZNSt23_Rb_tree_const_iteratorISt4pairIKjN5Yosys5RTLIL5ConstEEEC2ERKSt17_Rb_tree_iteratorIS5_E(ptr noundef nonnull align 8 dereferenceable(8) %0, ptr noundef nonnull align 8 dereferenceable(8) %1) unnamed_addr #8 comdat align 2 {
  %3 = alloca ptr, align 8
  %4 = alloca ptr, align 8
  store ptr %0, ptr %3, align 8, !tbaa !508
  store ptr %1, ptr %4, align 8, !tbaa !513
  %5 = load ptr, ptr %3, align 8
  %6 = getelementptr inbounds nuw %"struct.std::_Rb_tree_const_iterator.238", ptr %5, i32 0, i32 0
  %7 = load ptr, ptr %4, align 8, !tbaa !513
  %8 = getelementptr inbounds nuw %"struct.std::_Rb_tree_iterator.241", ptr %7, i32 0, i32 0
  %9 = load ptr, ptr %8, align 8, !tbaa !515
  store ptr %9, ptr %6, align 8, !tbaa !510
  ret void
}

; Function Attrs: mustprogress uwtable
define noundef zeroext i1 @_ZNK5Yosys11MemContents15_range_containsESt17_Rb_tree_iteratorISt4pairIKjNS_5RTLIL5ConstEEEj(ptr noundef nonnull align 8 dereferenceable(96) %0, ptr %1, i32 noundef %2) #4 align 2 {
  %4 = alloca %"struct.std::_Rb_tree_iterator.241", align 8
  %5 = alloca ptr, align 8
  %6 = alloca i32, align 4
  %7 = alloca %"struct.std::_Rb_tree_const_iterator.238", align 8
  %8 = alloca %"struct.std::_Rb_tree_const_iterator.238", align 8
  %9 = alloca %"struct.std::_Rb_tree_iterator.241", align 8
  %10 = alloca %"struct.std::_Rb_tree_iterator.241", align 8
  %11 = getelementptr inbounds nuw %"struct.std::_Rb_tree_iterator.241", ptr %4, i32 0, i32 0
  store ptr %1, ptr %11, align 8
  store ptr %0, ptr %5, align 8, !tbaa !484
  store i32 %2, ptr %6, align 4, !tbaa !89
  %12 = load ptr, ptr %5, align 8
  call void @llvm.lifetime.start.p0(i64 8, ptr %7) #3
  call void @_ZNSt23_Rb_tree_const_iteratorISt4pairIKjN5Yosys5RTLIL5ConstEEEC2ERKSt17_Rb_tree_iteratorIS5_E(ptr noundef nonnull align 8 dereferenceable(8) %7, ptr noundef nonnull align 8 dereferenceable(8) %4) #3
  call void @llvm.lifetime.start.p0(i64 8, ptr %8) #3
  %13 = getelementptr inbounds nuw %"class.Yosys::MemContents", ptr %12, i32 0, i32 3
  %14 = call ptr @_ZNKSt3mapIjN5Yosys5RTLIL5ConstESt4lessIjESaISt4pairIKjS2_EEE3endEv(ptr noundef nonnull align 8 dereferenceable(48) %13) #3
  %15 = getelementptr inbounds nuw %"struct.std::_Rb_tree_const_iterator.238", ptr %8, i32 0, i32 0
  store ptr %14, ptr %15, align 8
  %16 = call noundef zeroext i1 @_ZStneRKSt23_Rb_tree_const_iteratorISt4pairIKjN5Yosys5RTLIL5ConstEEES8_(ptr noundef nonnull align 8 dereferenceable(8) %7, ptr noundef nonnull align 8 dereferenceable(8) %8) #3
  br i1 %16, label %17, label %27

17:                                               ; preds = %3
  %18 = load i32, ptr %6, align 4, !tbaa !89
  call void @llvm.memcpy.p0.p0.i64(ptr align 8 %9, ptr align 8 %4, i64 8, i1 false), !tbaa.struct !209
  %19 = getelementptr inbounds nuw %"struct.std::_Rb_tree_iterator.241", ptr %9, i32 0, i32 0
  %20 = load ptr, ptr %19, align 8
  %21 = call noundef i32 @_ZNK5Yosys11MemContents12_range_beginESt17_Rb_tree_iteratorISt4pairIKjNS_5RTLIL5ConstEEE(ptr noundef nonnull align 8 dereferenceable(96) %12, ptr %20)
  %22 = sub i32 %18, %21
  call void @llvm.memcpy.p0.p0.i64(ptr align 8 %10, ptr align 8 %4, i64 8, i1 false), !tbaa.struct !209
  %23 = getelementptr inbounds nuw %"struct.std::_Rb_tree_iterator.241", ptr %10, i32 0, i32 0
  %24 = load ptr, ptr %23, align 8
  %25 = call noundef i32 @_ZNK5Yosys11MemContents11_range_sizeESt17_Rb_tree_iteratorISt4pairIKjNS_5RTLIL5ConstEEE(ptr noundef nonnull align 8 dereferenceable(96) %12, ptr %24)
  %26 = icmp ult i32 %22, %25
  br label %27

27:                                               ; preds = %17, %3
  %28 = phi i1 [ false, %3 ], [ %26, %17 ]
  call void @llvm.lifetime.end.p0(i64 8, ptr %8) #3
  call void @llvm.lifetime.end.p0(i64 8, ptr %7) #3
  ret i1 %28
}