; Function Attrs: mustprogress uwtable
define noundef zeroext i1 @_ZNK5Yosys11MemContents15_range_containsESt17_Rb_tree_iteratorISt4pairIKjNS_5RTLIL5ConstEEEj(ptr noundef nonnull readonly align 8 captures(address) dereferenceable(96) %0, ptr %1, i32 noundef %2) local_unnamed_addr #3 align 2 {
  %4 = getelementptr inbounds nuw i8, ptr %0, i64 56
  %.not = icmp eq ptr %1, %4
  br i1 %.not, label %15, label %5

5:                                                ; preds = %3
  %6 = getelementptr inbounds nuw i8, ptr %1, i64 32
  %7 = load i32, ptr %6, align 8, !tbaa !593
  %8 = sub i32 %2, %7
  %9 = getelementptr inbounds nuw i8, ptr %1, i64 40
  %10 = tail call noundef i32 @_ZNK5Yosys5RTLIL5Const4sizeEv(ptr noundef nonnull align 8 dereferenceable(40) %9)
  %11 = getelementptr inbounds nuw i8, ptr %0, i64 4
  %12 = load i32, ptr %11, align 4, !tbaa !582
  %13 = sdiv i32 %10, %12
  %14 = icmp ult i32 %8, %13
  br label %15

15:                                               ; preds = %5, %3
  %16 = phi i1 [ false, %3 ], [ %14, %5 ]
  ret i1 %16
}